target datalayout = "e-m:e-p270:32:32-p271:32:32-p272:64:64-i64:64-i128:128-f80:128-n8:16:32:64-S128"
target triple = "x86_64-pc-linux-gnu"

%struct.PS_HintsRec_ = type { ptr, i32, i32, i32, [2 x %struct.PS_DimensionRec_] }
%struct.PS_DimensionRec_ = type { %struct.PS_Hint_TableRec_, %struct.PS_Mask_TableRec_, %struct.PS_Mask_TableRec_ }
%struct.PS_Hint_TableRec_ = type { i32, i32, ptr }
%struct.PS_Mask_TableRec_ = type { i32, i32, ptr }

; Function Attrs: nounwind uwtable
define internal void @ps_hints_t2counter(ptr noundef %0, i32 noundef %1, ptr noundef %2) #0 {
  %4 = alloca ptr, align 8
  %5 = alloca i32, align 4
  %6 = alloca ptr, align 8
  %7 = alloca ptr, align 8
  %8 = alloca i32, align 4
  %9 = alloca ptr, align 8
  %10 = alloca ptr, align 8
  %11 = alloca i32, align 4
  %12 = alloca i32, align 4
  store ptr %0, ptr %4, align 8
  store i32 %1, ptr %5, align 4
  store ptr %2, ptr %6, align 8
  %13 = load ptr, ptr %4, align 8
  store ptr %13, ptr %7, align 8
  %14 = load ptr, ptr %7, align 8
  %15 = getelementptr inbounds %struct.PS_HintsRec_, ptr %14, i32 0, i32 1
  %16 = load i32, ptr %15, align 8
  %17 = icmp ne i32 %16, 0
  br i1 %17, label %65, label %18

18:                                               ; preds = %3
  %19 = load ptr, ptr %7, align 8
  %20 = getelementptr inbounds %struct.PS_HintsRec_, ptr %19, i32 0, i32 4
  %21 = getelementptr inbounds [2 x %struct.PS_DimensionRec_], ptr %20, i64 0, i64 0
  store ptr %21, ptr %9, align 8
  %22 = load ptr, ptr %7, align 8
  %23 = getelementptr inbounds %struct.PS_HintsRec_, ptr %22, i32 0, i32 0
  %24 = load ptr, ptr %23, align 8
  store ptr %24, ptr %10, align 8
  %25 = load ptr, ptr %9, align 8
  %26 = getelementptr inbounds %struct.PS_DimensionRec_, ptr %25, i64 0
  %27 = getelementptr inbounds %struct.PS_DimensionRec_, ptr %26, i32 0, i32 0
  %28 = getelementptr inbounds %struct.PS_Hint_TableRec_, ptr %27, i32 0, i32 0
  %29 = load i32, ptr %28, align 8
  store i32 %29, ptr %11, align 4
  %30 = load ptr, ptr %9, align 8
  %31 = getelementptr inbounds %struct.PS_DimensionRec_, ptr %30, i64 1
  %32 = getelementptr inbounds %struct.PS_DimensionRec_, ptr %31, i32 0, i32 0
  %33 = getelementptr inbounds %struct.PS_Hint_TableRec_, ptr %32, i32 0, i32 0
  %34 = load i32, ptr %33, align 8
  store i32 %34, ptr %12, align 4
  %35 = load i32, ptr %5, align 4
  %36 = load i32, ptr %11, align 4
  %37 = load i32, ptr %12, align 4
  %38 = add i32 %36, %37
  %39 = icmp ne i32 %35, %38
  br i1 %39, label %40, label %43

40:                                               ; preds = %18
  br label %41

41:                                               ; preds = %40
  br label %42

42:                                               ; preds = %41
  br label %70

43:                                               ; preds = %18
  %44 = load ptr, ptr %9, align 8
  %45 = getelementptr inbounds %struct.PS_DimensionRec_, ptr %44, i64 0
  %46 = load ptr, ptr %6, align 8
  %47 = load i32, ptr %11, align 4
  %48 = load ptr, ptr %10, align 8
  %49 = call i32 @ps_dimension_set_mask_bits(ptr noundef %45, ptr noundef %46, i32 noundef 0, i32 noundef %47, i32 noundef 0, ptr noundef %48)
  store i32 %49, ptr %8, align 4
  %50 = load i32, ptr %8, align 4
  %51 = icmp ne i32 %50, 0
  br i1 %51, label %52, label %53

52:                                               ; preds = %43
  br label %66

53:                                               ; preds = %43
  %54 = load ptr, ptr %9, align 8
  %55 = getelementptr inbounds %struct.PS_DimensionRec_, ptr %54, i64 1
  %56 = load ptr, ptr %6, align 8
  %57 = load i32, ptr %11, align 4
  %58 = load i32, ptr %12, align 4
  %59 = load ptr, ptr %10, align 8
  %60 = call i32 @ps_dimension_set_mask_bits(ptr noundef %55, ptr noundef %56, i32 noundef %57, i32 noundef %58, i32 noundef 0, ptr noundef %59)
  store i32 %60, ptr %8, align 4
  %61 = load i32, ptr %8, align 4
  %62 = icmp ne i32 %61, 0
  br i1 %62, label %63, label %64

63:                                               ; preds = %53
  br label %66

64:                                               ; preds = %53
  br label %65

65:                                               ; preds = %64, %3
  br label %70

66:                                               ; preds = %63, %52
  %67 = load i32, ptr %8, align 4
  %68 = load ptr, ptr %7, align 8
  %69 = getelementptr inbounds %struct.PS_HintsRec_, ptr %68, i32 0, i32 1
  store i32 %67, ptr %69, align 8
  br label %70

70:                                               ; preds = %66, %65, %42
  ret void
}