; Function Attrs: nounwind uwtable
define internal void @ps_hints_t2counter(ptr nocapture noundef %0, i32 noundef %1, ptr nocapture noundef readonly %2) #0 {
  %4 = getelementptr inbounds i8, ptr %0, i64 8
  %5 = load i32, ptr %4, align 8
  %.not = icmp eq i32 %5, 0
  br i1 %.not, label %6, label %18

6:                                                ; preds = %3
  %7 = getelementptr inbounds i8, ptr %0, i64 24
  %8 = load ptr, ptr %0, align 8
  %9 = load i32, ptr %7, align 8
  %10 = getelementptr inbounds i8, ptr %0, i64 72
  %11 = load i32, ptr %10, align 8
  %12 = add i32 %11, %9
  %.not23 = icmp eq i32 %12, %1
  br i1 %.not23, label %13, label %18

13:                                               ; preds = %6
  %14 = tail call fastcc i32 @ps_dimension_set_mask_bits(ptr noundef nonnull %7, ptr noundef %2, i32 noundef 0, i32 noundef %9, i32 noundef 0, ptr noundef %8)
  %.not24 = icmp eq i32 %14, 0
  br i1 %.not24, label %15, label %17

15:                                               ; preds = %13
  %16 = tail call fastcc i32 @ps_dimension_set_mask_bits(ptr noundef nonnull %10, ptr noundef %2, i32 noundef %9, i32 noundef %11, i32 noundef 0, ptr noundef %8)
  %.not25 = icmp eq i32 %16, 0
  br i1 %.not25, label %18, label %17

17:                                               ; preds = %15, %13
  %.0 = phi i32 [ %14, %13 ], [ %16, %15 ]
  store i32 %.0, ptr %4, align 8
  br label %18

18:                                               ; preds = %3, %15, %6, %17
  ret void
}